target datalayout = "e-m:e-p270:32:32-p271:32:32-p272:64:64-i64:64-i128:128-f80:128-n8:16:32:64-S128"
target triple = "x86_64-pc-linux-gnu"

%struct.Vec_Int_t_ = type { i32, i32, ptr }

; Function Attrs: nounwind uwtable
define internal void @Vec_IntGrow(ptr noundef %0, i32 noundef %1) #0 {
  %3 = alloca ptr, align 8
  %4 = alloca i32, align 4
  store ptr %0, ptr %3, align 8
  store i32 %1, ptr %4, align 4
  %5 = load ptr, ptr %3, align 8
  %6 = getelementptr inbounds %struct.Vec_Int_t_, ptr %5, i32 0, i32 0
  %7 = load i32, ptr %6, align 8
  %8 = load i32, ptr %4, align 4
  %9 = icmp sge i32 %7, %8
  br i1 %9, label %10, label %11

10:                                               ; preds = %2
  br label %36

11:                                               ; preds = %2
  %12 = load ptr, ptr %3, align 8
  %13 = getelementptr inbounds %struct.Vec_Int_t_, ptr %12, i32 0, i32 2
  %14 = load ptr, ptr %13, align 8
  %15 = icmp ne ptr %14, null
  br i1 %15, label %16, label %24

16:                                               ; preds = %11
  %17 = load ptr, ptr %3, align 8
  %18 = getelementptr inbounds %struct.Vec_Int_t_, ptr %17, i32 0, i32 2
  %19 = load ptr, ptr %18, align 8
  %20 = load i32, ptr %4, align 4
  %21 = sext i32 %20 to i64
  %22 = mul i64 4, %21
  %23 = call ptr @realloc(ptr noundef %19, i64 noundef %22) #12
  br label %29

24:                                               ; preds = %11
  %25 = load i32, ptr %4, align 4
  %26 = sext i32 %25 to i64
  %27 = mul i64 4, %26
  %28 = call noalias ptr @malloc(i64 noundef %27) #10
  br label %29

29:                                               ; preds = %24, %16
  %30 = phi ptr [ %23, %16 ], [ %28, %24 ]
  %31 = load ptr, ptr %3, align 8
  %32 = getelementptr inbounds %struct.Vec_Int_t_, ptr %31, i32 0, i32 2
  store ptr %30, ptr %32, align 8
  %33 = load i32, ptr %4, align 4
  %34 = load ptr, ptr %3, align 8
  %35 = getelementptr inbounds %struct.Vec_Int_t_, ptr %34, i32 0, i32 0
  store i32 %33, ptr %35, align 8
  br label %36

36:                                               ; preds = %29, %10
  ret void
}

; Function Attrs: nounwind uwtable
define internal void @Vec_IntFree(ptr noundef %0) #0 {
  %2 = alloca ptr, align 8
  store ptr %0, ptr %2, align 8
  %3 = load ptr, ptr %2, align 8
  %4 = getelementptr inbounds %struct.Vec_Int_t_, ptr %3, i32 0, i32 2
  %5 = load ptr, ptr %4, align 8
  %6 = icmp ne ptr %5, null
  br i1 %6, label %7, label %13

7:                                                ; preds = %1
  %8 = load ptr, ptr %2, align 8
  %9 = getelementptr inbounds %struct.Vec_Int_t_, ptr %8, i32 0, i32 2
  %10 = load ptr, ptr %9, align 8
  call void @free(ptr noundef %10) #11
  %11 = load ptr, ptr %2, align 8
  %12 = getelementptr inbounds %struct.Vec_Int_t_, ptr %11, i32 0, i32 2
  store ptr null, ptr %12, align 8
  br label %14

13:                                               ; preds = %1
  br label %14

14:                                               ; preds = %13, %7
  %15 = load ptr, ptr %2, align 8
  %16 = icmp ne ptr %15, null
  br i1 %16, label %17, label %19

17:                                               ; preds = %14
  %18 = load ptr, ptr %2, align 8
  call void @free(ptr noundef %18) #11
  store ptr null, ptr %2, align 8
  br label %20

19:                                               ; preds = %14
  br label %20

20:                                               ; preds = %19, %17
  ret void
}

; Function Attrs: nounwind uwtable
define internal void @Vec_IntPush(ptr noundef %0, i32 noundef %1) #0 {
  %3 = alloca ptr, align 8
  %4 = alloca i32, align 4
  store ptr %0, ptr %3, align 8
  store i32 %1, ptr %4, align 4
  %5 = load ptr, ptr %3, align 8
  %6 = getelementptr inbounds %struct.Vec_Int_t_, ptr %5, i32 0, i32 1
  %7 = load i32, ptr %6, align 4
  %8 = load ptr, ptr %3, align 8
  %9 = getelementptr inbounds %struct.Vec_Int_t_, ptr %8, i32 0, i32 0
  %10 = load i32, ptr %9, align 8
  %11 = icmp eq i32 %7, %10
  br i1 %11, label %12, label %26

12:                                               ; preds = %2
  %13 = load ptr, ptr %3, align 8
  %14 = getelementptr inbounds %struct.Vec_Int_t_, ptr %13, i32 0, i32 0
  %15 = load i32, ptr %14, align 8
  %16 = icmp slt i32 %15, 16
  br i1 %16, label %17, label %19

17:                                               ; preds = %12
  %18 = load ptr, ptr %3, align 8
  call void @Vec_IntGrow(ptr noundef %18, i32 noundef 16)
  br label %25

19:                                               ; preds = %12
  %20 = load ptr, ptr %3, align 8
  %21 = load ptr, ptr %3, align 8
  %22 = getelementptr inbounds %struct.Vec_Int_t_, ptr %21, i32 0, i32 0
  %23 = load i32, ptr %22, align 8
  %24 = mul nsw i32 2, %23
  call void @Vec_IntGrow(ptr noundef %20, i32 noundef %24)
  br label %25

25:                                               ; preds = %19, %17
  br label %26

26:                                               ; preds = %25, %2
  %27 = load i32, ptr %4, align 4
  %28 = load ptr, ptr %3, align 8
  %29 = getelementptr inbounds %struct.Vec_Int_t_, ptr %28, i32 0, i32 2
  %30 = load ptr, ptr %29, align 8
  %31 = load ptr, ptr %3, align 8
  %32 = getelementptr inbounds %struct.Vec_Int_t_, ptr %31, i32 0, i32 1
  %33 = load i32, ptr %32, align 4
  %34 = add nsw i32 %33, 1
  store i32 %34, ptr %32, align 4
  %35 = sext i32 %33 to i64
  %36 = getelementptr inbounds i32, ptr %30, i64 %35
  store i32 %27, ptr %36, align 4
  ret void
}

; Function Attrs: nounwind uwtable
define internal i64 @Abc_Tt6Stretch(i64 noundef %0, i32 noundef %1) #0 {
  %3 = alloca i64, align 8
  %4 = alloca i32, align 4
  store i64 %0, ptr %3, align 8
  store i32 %1, ptr %4, align 4
  %5 = load i32, ptr %4, align 4
  %6 = icmp eq i32 %5, 0
  br i1 %6, label %7, label %16

7:                                                ; preds = %2
  %8 = load i32, ptr %4, align 4
  %9 = add nsw i32 %8, 1
  store i32 %9, ptr %4, align 4
  %10 = load i64, ptr %3, align 8
  %11 = and i64 %10, 1
  %12 = load i64, ptr %3, align 8
  %13 = and i64 %12, 1
  %14 = shl i64 %13, 1
  %15 = or i64 %11, %14
  store i64 %15, ptr %3, align 8
  br label %16

16:                                               ; preds = %7, %2
  %17 = load i32, ptr %4, align 4
  %18 = icmp eq i32 %17, 1
  br i1 %18, label %19, label %28

19:                                               ; preds = %16
  %20 = load i32, ptr %4, align 4
  %21 = add nsw i32 %20, 1
  store i32 %21, ptr %4, align 4
  %22 = load i64, ptr %3, align 8
  %23 = and i64 %22, 3
  %24 = load i64, ptr %3, align 8
  %25 = and i64 %24, 3
  %26 = shl i64 %25, 2
  %27 = or i64 %23, %26
  store i64 %27, ptr %3, align 8
  br label %28

28:                                               ; preds = %19, %16
  %29 = load i32, ptr %4, align 4
  %30 = icmp eq i32 %29, 2
  br i1 %30, label %31, label %40

31:                                               ; preds = %28
  %32 = load i32, ptr %4, align 4
  %33 = add nsw i32 %32, 1
  store i32 %33, ptr %4, align 4
  %34 = load i64, ptr %3, align 8
  %35 = and i64 %34, 15
  %36 = load i64, ptr %3, align 8
  %37 = and i64 %36, 15
  %38 = shl i64 %37, 4
  %39 = or i64 %35, %38
  store i64 %39, ptr %3, align 8
  br label %40

40:                                               ; preds = %31, %28
  %41 = load i32, ptr %4, align 4
  %42 = icmp eq i32 %41, 3
  br i1 %42, label %43, label %52

43:                                               ; preds = %40
  %44 = load i32, ptr %4, align 4
  %45 = add nsw i32 %44, 1
  store i32 %45, ptr %4, align 4
  %46 = load i64, ptr %3, align 8
  %47 = and i64 %46, 255
  %48 = load i64, ptr %3, align 8
  %49 = and i64 %48, 255
  %50 = shl i64 %49, 8
  %51 = or i64 %47, %50
  store i64 %51, ptr %3, align 8
  br label %52

52:                                               ; preds = %43, %40
  %53 = load i32, ptr %4, align 4
  %54 = icmp eq i32 %53, 4
  br i1 %54, label %55, label %64

55:                                               ; preds = %52
  %56 = load i32, ptr %4, align 4
  %57 = add nsw i32 %56, 1
  store i32 %57, ptr %4, align 4
  %58 = load i64, ptr %3, align 8
  %59 = and i64 %58, 65535
  %60 = load i64, ptr %3, align 8
  %61 = and i64 %60, 65535
  %62 = shl i64 %61, 16
  %63 = or i64 %59, %62
  store i64 %63, ptr %3, align 8
  br label %64

64:                                               ; preds = %55, %52
  %65 = load i32, ptr %4, align 4
  %66 = icmp eq i32 %65, 5
  br i1 %66, label %67, label %76

67:                                               ; preds = %64
  %68 = load i32, ptr %4, align 4
  %69 = add nsw i32 %68, 1
  store i32 %69, ptr %4, align 4
  %70 = load i64, ptr %3, align 8
  %71 = and i64 %70, 4294967295
  %72 = load i64, ptr %3, align 8
  %73 = and i64 %72, 4294967295
  %74 = shl i64 %73, 32
  %75 = or i64 %71, %74
  store i64 %75, ptr %3, align 8
  br label %76

76:                                               ; preds = %67, %64
  %77 = load i64, ptr %3, align 8
  ret i64 %77
}

; Function Attrs: nounwind uwtable
define internal void @Abc_TtSetBit(ptr noundef %0, i32 noundef %1) #0 {
  %3 = alloca ptr, align 8
  %4 = alloca i32, align 4
  store ptr %0, ptr %3, align 8
  store i32 %1, ptr %4, align 4
  %5 = load i32, ptr %4, align 4
  %6 = and i32 %5, 63
  %7 = zext i32 %6 to i64
  %8 = shl i64 1, %7
  %9 = load ptr, ptr %3, align 8
  %10 = load i32, ptr %4, align 4
  %11 = ashr i32 %10, 6
  %12 = sext i32 %11 to i64
  %13 = getelementptr inbounds i64, ptr %9, i64 %12
  %14 = load i64, ptr %13, align 8
  %15 = or i64 %14, %8
  store i64 %15, ptr %13, align 8
  ret void
}

; Function Attrs: nounwind uwtable
define internal i32 @Abc_TtGetBit(ptr noundef %0, i32 noundef %1) #0 {
  %3 = alloca ptr, align 8
  %4 = alloca i32, align 4
  store ptr %0, ptr %3, align 8
  store i32 %1, ptr %4, align 4
  %5 = load ptr, ptr %3, align 8
  %6 = load i32, ptr %4, align 4
  %7 = ashr i32 %6, 6
  %8 = sext i32 %7 to i64
  %9 = getelementptr inbounds i64, ptr %5, i64 %8
  %10 = load i64, ptr %9, align 8
  %11 = load i32, ptr %4, align 4
  %12 = and i32 %11, 63
  %13 = zext i32 %12 to i64
  %14 = lshr i64 %10, %13
  %15 = trunc i64 %14 to i32
  %16 = and i32 %15, 1
  ret i32 %16
}

; Function Attrs: nounwind uwtable
define internal void @Vec_IntClear(ptr noundef %0) #0 {
  %2 = alloca ptr, align 8
  store ptr %0, ptr %2, align 8
  %3 = load ptr, ptr %2, align 8
  %4 = getelementptr inbounds %struct.Vec_Int_t_, ptr %3, i32 0, i32 1
  store i32 0, ptr %4, align 4
  ret void
}

; Function Attrs: nounwind uwtable
define internal i32 @Abc_TtWordNum(i32 noundef %0) #0 {
  %2 = alloca i32, align 4
  store i32 %0, ptr %2, align 4
  %3 = load i32, ptr %2, align 4
  %4 = icmp sle i32 %3, 6
  br i1 %4, label %5, label %6

5:                                                ; preds = %1
  br label %10

6:                                                ; preds = %1
  %7 = load i32, ptr %2, align 4
  %8 = sub nsw i32 %7, 6
  %9 = shl i32 1, %8
  br label %10

10:                                               ; preds = %6, %5
  %11 = phi i32 [ 1, %5 ], [ %9, %6 ]
  ret i32 %11
}

; Function Attrs: nounwind uwtable
define internal ptr @Vec_IntAlloc(i32 noundef %0) #0 {
  %2 = alloca i32, align 4
  %3 = alloca ptr, align 8
  store i32 %0, ptr %2, align 4
  %4 = call noalias ptr @malloc(i64 noundef 16) #10
  store ptr %4, ptr %3, align 8
  %5 = load i32, ptr %2, align 4
  %6 = icmp sgt i32 %5, 0
  br i1 %6, label %7, label %11

7:                                                ; preds = %1
  %8 = load i32, ptr %2, align 4
  %9 = icmp slt i32 %8, 16
  br i1 %9, label %10, label %11

10:                                               ; preds = %7
  store i32 16, ptr %2, align 4
  br label %11

11:                                               ; preds = %10, %7, %1
  %12 = load ptr, ptr %3, align 8
  %13 = getelementptr inbounds %struct.Vec_Int_t_, ptr %12, i32 0, i32 1
  store i32 0, ptr %13, align 4
  %14 = load i32, ptr %2, align 4
  %15 = load ptr, ptr %3, align 8
  %16 = getelementptr inbounds %struct.Vec_Int_t_, ptr %15, i32 0, i32 0
  store i32 %14, ptr %16, align 8
  %17 = load ptr, ptr %3, align 8
  %18 = getelementptr inbounds %struct.Vec_Int_t_, ptr %17, i32 0, i32 0
  %19 = load i32, ptr %18, align 8
  %20 = icmp ne i32 %19, 0
  br i1 %20, label %21, label %28

21:                                               ; preds = %11
  %22 = load ptr, ptr %3, align 8
  %23 = getelementptr inbounds %struct.Vec_Int_t_, ptr %22, i32 0, i32 0
  %24 = load i32, ptr %23, align 8
  %25 = sext i32 %24 to i64
  %26 = mul i64 4, %25
  %27 = call noalias ptr @malloc(i64 noundef %26) #10
  br label %29

28:                                               ; preds = %11
  br label %29

29:                                               ; preds = %28, %21
  %30 = phi ptr [ %27, %21 ], [ null, %28 ]
  %31 = load ptr, ptr %3, align 8
  %32 = getelementptr inbounds %struct.Vec_Int_t_, ptr %31, i32 0, i32 2
  store ptr %30, ptr %32, align 8
  %33 = load ptr, ptr %3, align 8
  ret ptr %33
}

; Function Attrs: nounwind uwtable
define void @Cba_BlastTable(ptr noundef %0, ptr noundef %1, ptr noundef %2, i32 noundef %3, i32 noundef %4, ptr noundef %5) #0 {
  %7 = alloca ptr, align 8
  %8 = alloca ptr, align 8
  %9 = alloca ptr, align 8
  %10 = alloca i32, align 4
  %11 = alloca i32, align 4
  %12 = alloca ptr, align 8
  %13 = alloca ptr, align 8
  %14 = alloca %struct.Vec_Int_t_, align 8
  %15 = alloca ptr, align 8
  %16 = alloca i32, align 4
  %17 = alloca i32, align 4
  %18 = alloca i32, align 4
  %19 = alloca i32, align 4
  %20 = alloca i32, align 4
  store ptr %0, ptr %7, align 8
  store ptr %1, ptr %8, align 8
  store ptr %2, ptr %9, align 8
  store i32 %3, ptr %10, align 4
  store i32 %4, ptr %11, align 4
  store ptr %5, ptr %12, align 8
  %21 = call ptr @Vec_IntAlloc(i32 noundef 0)
  store ptr %21, ptr %13, align 8
  %22 = getelementptr inbounds %struct.Vec_Int_t_, ptr %14, i32 0, i32 0
  %23 = load i32, ptr %10, align 4
  store i32 %23, ptr %22, align 8
  %24 = getelementptr inbounds %struct.Vec_Int_t_, ptr %14, i32 0, i32 1
  %25 = load i32, ptr %10, align 4
  store i32 %25, ptr %24, align 4
  %26 = getelementptr inbounds %struct.Vec_Int_t_, ptr %14, i32 0, i32 2
  %27 = load ptr, ptr %9, align 8
  store ptr %27, ptr %26, align 8
  %28 = load i32, ptr %10, align 4
  %29 = call i32 @Abc_TtWordNum(i32 noundef %28)
  %30 = sext i32 %29 to i64
  %31 = mul i64 8, %30
  %32 = call noalias ptr @malloc(i64 noundef %31) #10
  store ptr %32, ptr %15, align 8
  %33 = load i32, ptr %10, align 4
  %34 = shl i32 1, %33
  store i32 %34, ptr %20, align 4
  %35 = load ptr, ptr %12, align 8
  call void @Vec_IntClear(ptr noundef %35)
  store i32 0, ptr %16, align 4
  br label %36

36:                                               ; preds = %94, %6
  %37 = load i32, ptr %16, align 4
  %38 = load i32, ptr %11, align 4
  %39 = icmp slt i32 %37, %38
  br i1 %39, label %40, label %97

40:                                               ; preds = %36
  %41 = load ptr, ptr %15, align 8
  %42 = load i32, ptr %10, align 4
  %43 = call i32 @Abc_TtWordNum(i32 noundef %42)
  %44 = sext i32 %43 to i64
  %45 = mul i64 8, %44
  call void @llvm.memset.p0.i64(ptr align 8 %41, i8 0, i64 %45, i1 false)
  store i32 0, ptr %18, align 4
  br label %46

46:                                               ; preds = %72, %40
  %47 = load i32, ptr %18, align 4
  %48 = load i32, ptr %20, align 4
  %49 = icmp slt i32 %47, %48
  br i1 %49, label %50, label %75

50:                                               ; preds = %46
  store i32 0, ptr %17, align 4
  br label %51

51:                                               ; preds = %68, %50
  %52 = load i32, ptr %17, align 4
  %53 = load i32, ptr %10, align 4
  %54 = icmp slt i32 %52, %53
  br i1 %54, label %55, label %71

55:                                               ; preds = %51
  %56 = load ptr, ptr %8, align 8
  %57 = load i32, ptr %18, align 4
  %58 = load i32, ptr %10, align 4
  %59 = mul nsw i32 %57, %58
  %60 = load i32, ptr %17, align 4
  %61 = add nsw i32 %59, %60
  %62 = call i32 @Abc_TtGetBit(ptr noundef %56, i32 noundef %61)
  %63 = icmp ne i32 %62, 0
  br i1 %63, label %64, label %67

64:                                               ; preds = %55
  %65 = load ptr, ptr %15, align 8
  %66 = load i32, ptr %18, align 4
  call void @Abc_TtSetBit(ptr noundef %65, i32 noundef %66)
  br label %67

67:                                               ; preds = %64, %55
  br label %68

68:                                               ; preds = %67
  %69 = load i32, ptr %17, align 4
  %70 = add nsw i32 %69, 1
  store i32 %70, ptr %17, align 4
  br label %51, !llvm.loop !47

71:                                               ; preds = %51
  br label %72

72:                                               ; preds = %71
  %73 = load i32, ptr %18, align 4
  %74 = add nsw i32 %73, 1
  store i32 %74, ptr %18, align 4
  br label %46, !llvm.loop !48

75:                                               ; preds = %46
  %76 = load i32, ptr %10, align 4
  %77 = icmp slt i32 %76, 6
  br i1 %77, label %78, label %86

78:                                               ; preds = %75
  %79 = load ptr, ptr %15, align 8
  %80 = getelementptr inbounds i64, ptr %79, i64 0
  %81 = load i64, ptr %80, align 8
  %82 = load i32, ptr %10, align 4
  %83 = call i64 @Abc_Tt6Stretch(i64 noundef %81, i32 noundef %82)
  %84 = load ptr, ptr %15, align 8
  %85 = getelementptr inbounds i64, ptr %84, i64 0
  store i64 %83, ptr %85, align 8
  br label %86

86:                                               ; preds = %78, %75
  %87 = load ptr, ptr %7, align 8
  %88 = load ptr, ptr %15, align 8
  %89 = load i32, ptr %10, align 4
  %90 = load ptr, ptr %13, align 8
  %91 = call i32 @Kit_TruthToGia(ptr noundef %87, ptr noundef %88, i32 noundef %89, ptr noundef %90, ptr noundef %14, i32 noundef 1)
  store i32 %91, ptr %19, align 4
  %92 = load ptr, ptr %12, align 8
  %93 = load i32, ptr %19, align 4
  call void @Vec_IntPush(ptr noundef %92, i32 noundef %93)
  br label %94

94:                                               ; preds = %86
  %95 = load i32, ptr %16, align 4
  %96 = add nsw i32 %95, 1
  store i32 %96, ptr %16, align 4
  br label %36, !llvm.loop !49

97:                                               ; preds = %36
  %98 = load ptr, ptr %13, align 8
  call void @Vec_IntFree(ptr noundef %98)
  %99 = load ptr, ptr %15, align 8
  %100 = icmp ne ptr %99, null
  br i1 %100, label %101, label %103

101:                                              ; preds = %97
  %102 = load ptr, ptr %15, align 8
  call void @free(ptr noundef %102) #11
  store ptr null, ptr %15, align 8
  br label %104

103:                                              ; preds = %97
  br label %104

104:                                              ; preds = %103, %101
  ret void
}