; Function Attrs: nounwind uwtable
define void @Cba_BlastTable(ptr noundef %0, ptr noundef readonly captures(none) %1, ptr noundef %2, i32 noundef %3, i32 noundef %4, ptr noundef captures(none) initializes((4, 8)) %5) local_unnamed_addr #0 {
  %7 = alloca %struct.Vec_Int_t_, align 8
  %calloc = tail call dereferenceable_or_null(16) ptr @calloc(i64 1, i64 16)
  %8 = getelementptr inbounds nuw i8, ptr %calloc, i64 8
  store i32 %3, ptr %7, align 8
  %9 = getelementptr inbounds nuw i8, ptr %7, i64 4
  store i32 %3, ptr %9, align 4
  %10 = getelementptr inbounds nuw i8, ptr %7, i64 8
  store ptr %2, ptr %10, align 8
  %11 = icmp slt i32 %3, 7
  %12 = add nsw i32 %3, -6
  %13 = shl nuw i32 1, %12
  %14 = select i1 %11, i32 1, i32 %13
  %15 = sext i32 %14 to i64
  %16 = shl nsw i64 %15, 3
  %17 = tail call noalias ptr @malloc(i64 noundef %16) #19
  %18 = getelementptr inbounds nuw i8, ptr %5, i64 4
  store i32 0, ptr %18, align 4
  %19 = icmp sgt i32 %4, 0
  br i1 %19, label %.lr.ph, label %Vec_IntFree.exit

.lr.ph:                                           ; preds = %6
  %20 = shl nuw i32 1, %3
  %.not44 = icmp eq i32 %3, 31
  %21 = icmp sgt i32 %3, 0
  %22 = icmp slt i32 %3, 6
  %23 = icmp eq i32 %3, 0
  %24 = icmp ult i32 %3, 2
  %.1.i = tail call i32 @llvm.umax.i32(i32 %3, i32 2)
  %25 = icmp ult i32 %3, 3
  %.2.i = select i1 %25, i32 3, i32 %.1.i
  %26 = icmp eq i32 %.2.i, 3
  %.3.i = select i1 %26, i32 4, i32 %.2.i
  %27 = icmp eq i32 %.3.i, 4
  %28 = and i32 %.3.i, -2
  %29 = icmp eq i32 %28, 4
  %.phi.trans.insert.i = getelementptr inbounds nuw i8, ptr %5, i64 8
  %smax = tail call i32 @llvm.smax.i32(i32 %20, i32 1)
  br label %30

30:                                               ; preds = %.lr.ph, %Vec_IntPush.exit
  %.043 = phi i32 [ 0, %.lr.ph ], [ %97, %Vec_IntPush.exit ]
  call void @llvm.memset.p0.i64(ptr noundef nonnull align 8 dereferenceable(1) %17, i8 0, i64 %16, i1 false)
  br i1 %.not44, label %._crit_edge42.thread48, label %.preheader.lr.ph

.preheader.lr.ph:                                 ; preds = %30
  br i1 %21, label %.preheader.us, label %._crit_edge42.thread

.preheader.us:                                    ; preds = %.preheader.lr.ph, %._crit_edge.us
  %.03541.us = phi i32 [ %53, %._crit_edge.us ], [ 0, %.preheader.lr.ph ]
  %31 = mul nuw nsw i32 %.03541.us, %3
  %32 = and i32 %.03541.us, 63
  %33 = zext nneg i32 %32 to i64
  %34 = shl nuw i64 1, %33
  %35 = lshr i32 %.03541.us, 6
  %36 = zext nneg i32 %35 to i64
  %37 = getelementptr inbounds nuw i64, ptr %17, i64 %36
  br label %38

38:                                               ; preds = %.preheader.us, %51
  %.03640.us = phi i32 [ 0, %.preheader.us ], [ %52, %51 ]
  %39 = add nuw nsw i32 %.03640.us, %31
  %40 = lshr i32 %39, 6
  %41 = zext nneg i32 %40 to i64
  %42 = getelementptr inbounds nuw i64, ptr %1, i64 %41
  %43 = load i64, ptr %42, align 8
  %44 = and i32 %39, 63
  %45 = zext nneg i32 %44 to i64
  %46 = shl nuw i64 1, %45
  %47 = and i64 %43, %46
  %.not39.us = icmp eq i64 %47, 0
  br i1 %.not39.us, label %51, label %48

48:                                               ; preds = %38
  %49 = load i64, ptr %37, align 8
  %50 = or i64 %49, %34
  store i64 %50, ptr %37, align 8
  br label %51

51:                                               ; preds = %48, %38
  %52 = add nuw nsw i32 %.03640.us, 1
  %exitcond.not = icmp eq i32 %52, %3
  br i1 %exitcond.not, label %._crit_edge.us, label %38, !llvm.loop !47

._crit_edge.us:                                   ; preds = %51
  %53 = add nuw nsw i32 %.03541.us, 1
  %exitcond46.not = icmp eq i32 %53, %smax
  br i1 %exitcond46.not, label %._crit_edge42, label %.preheader.us, !llvm.loop !48

._crit_edge42:                                    ; preds = %._crit_edge.us
  br i1 %22, label %._crit_edge42.thread, label %._crit_edge42.thread48

._crit_edge42.thread:                             ; preds = %.preheader.lr.ph, %._crit_edge42
  %54 = load i64, ptr %17, align 8
  %55 = trunc i64 %54 to i1
  %56 = select i1 %55, i64 3, i64 0
  %57 = and i64 %54, 3
  %58 = select i1 %23, i64 %56, i64 %57
  %59 = mul nuw nsw i64 %58, 5
  %.126.i = select i1 %24, i64 %59, i64 %54
  %60 = and i64 %.126.i, 15
  %61 = mul nuw nsw i64 %60, 17
  %.227.i = select i1 %25, i64 %61, i64 %54
  %62 = and i64 %.227.i, 255
  %63 = mul nuw nsw i64 %62, 257
  %.328.i = select i1 %26, i64 %63, i64 %.227.i
  %64 = and i64 %.328.i, 65535
  %65 = mul nuw nsw i64 %64, 65537
  %.429.i = select i1 %27, i64 %65, i64 %.328.i
  %66 = and i64 %.429.i, 4294967295
  %67 = mul nuw i64 %66, 4294967297
  %.5.i = select i1 %29, i64 %67, i64 %.429.i
  store i64 %.5.i, ptr %17, align 8
  br label %._crit_edge42.thread48

._crit_edge42.thread48:                           ; preds = %30, %._crit_edge42.thread, %._crit_edge42
  %68 = call i32 @Kit_TruthToGia(ptr noundef %0, ptr noundef nonnull %17, i32 noundef %3, ptr noundef nonnull %calloc, ptr noundef nonnull %7, i32 noundef 1) #20
  %69 = load i32, ptr %18, align 4
  %70 = load i32, ptr %5, align 8
  %71 = icmp eq i32 %69, %70
  br i1 %71, label %72, label %.Vec_IntGrow.exit10_crit_edge.i

.Vec_IntGrow.exit10_crit_edge.i:                  ; preds = %._crit_edge42.thread48
  %.pre.i = load ptr, ptr %.phi.trans.insert.i, align 8
  br label %Vec_IntPush.exit

72:                                               ; preds = %._crit_edge42.thread48
  %73 = icmp slt i32 %69, 16
  br i1 %73, label %74, label %81

74:                                               ; preds = %72
  %75 = load ptr, ptr %.phi.trans.insert.i, align 8
  %.not9.i.i = icmp eq ptr %75, null
  br i1 %.not9.i.i, label %78, label %76

76:                                               ; preds = %74
  %77 = call dereferenceable_or_null(64) ptr @realloc(ptr noundef nonnull %75, i64 noundef 64) #18
  br label %Vec_IntGrow.exit.i

78:                                               ; preds = %74
  %79 = call noalias dereferenceable_or_null(64) ptr @malloc(i64 noundef 64) #19
  br label %Vec_IntGrow.exit.i

Vec_IntGrow.exit.i:                               ; preds = %78, %76
  %80 = phi ptr [ %77, %76 ], [ %79, %78 ]
  store ptr %80, ptr %.phi.trans.insert.i, align 8
  store i32 16, ptr %5, align 8
  br label %Vec_IntPush.exit

81:                                               ; preds = %72
  %82 = shl nuw nsw i32 %69, 1
  %83 = load ptr, ptr %.phi.trans.insert.i, align 8
  %.not9.i9.i = icmp eq ptr %83, null
  %84 = zext nneg i32 %82 to i64
  %85 = shl nuw nsw i64 %84, 2
  br i1 %.not9.i9.i, label %88, label %86

86:                                               ; preds = %81
  %87 = call ptr @realloc(ptr noundef nonnull %83, i64 noundef %85) #18
  br label %90

88:                                               ; preds = %81
  %89 = call noalias ptr @malloc(i64 noundef %85) #19
  br label %90

90:                                               ; preds = %88, %86
  %91 = phi ptr [ %87, %86 ], [ %89, %88 ]
  store ptr %91, ptr %.phi.trans.insert.i, align 8
  store i32 %82, ptr %5, align 8
  br label %Vec_IntPush.exit

Vec_IntPush.exit:                                 ; preds = %.Vec_IntGrow.exit10_crit_edge.i, %Vec_IntGrow.exit.i, %90
  %92 = phi ptr [ %.pre.i, %.Vec_IntGrow.exit10_crit_edge.i ], [ %91, %90 ], [ %80, %Vec_IntGrow.exit.i ]
  %93 = load i32, ptr %18, align 4
  %94 = add nsw i32 %93, 1
  store i32 %94, ptr %18, align 4
  %95 = sext i32 %93 to i64
  %96 = getelementptr inbounds i32, ptr %92, i64 %95
  store i32 %68, ptr %96, align 4
  %97 = add nuw nsw i32 %.043, 1
  %exitcond47.not = icmp eq i32 %97, %4
  br i1 %exitcond47.not, label %._crit_edge, label %30, !llvm.loop !49

._crit_edge:                                      ; preds = %Vec_IntPush.exit
  %.pre = load ptr, ptr %8, align 8
  %.not.i = icmp eq ptr %.pre, null
  br i1 %.not.i, label %Vec_IntFree.exit.thread, label %98

98:                                               ; preds = %._crit_edge
  call void @free(ptr noundef nonnull %.pre) #20
  br label %Vec_IntFree.exit.thread

Vec_IntFree.exit.thread:                          ; preds = %._crit_edge, %98
  call void @free(ptr noundef nonnull %calloc) #20
  br label %99

Vec_IntFree.exit:                                 ; preds = %6
  tail call void @free(ptr noundef nonnull %calloc) #20
  %.not = icmp eq ptr %17, null
  br i1 %.not, label %100, label %99

99:                                               ; preds = %Vec_IntFree.exit.thread, %Vec_IntFree.exit
  call void @free(ptr noundef nonnull %17) #20
  br label %100

100:                                              ; preds = %Vec_IntFree.exit, %99
  ret void
}